target datalayout = "e-m:e-p270:32:32-p271:32:32-p272:64:64-i64:64-i128:128-f80:128-n8:16:32:64-S128"
target triple = "x86_64-unknown-linux-gnu"

%"class.std::__cxx11::basic_string" = type { %"struct.std::__cxx11::basic_string<char>::_Alloc_hider", i64, %union.anon }
%"struct.std::__cxx11::basic_string<char>::_Alloc_hider" = type { ptr }
%union.anon = type { i64, [8 x i8] }
%"class.Assimp::MDLImporter" = type <{ %"class.Assimp::BaseImporter", i32, [4 x i8], %"class.std::__cxx11::basic_string", ptr, i32, [4 x i8], ptr, ptr, i32, %"struct.Assimp::MDL::HalfLife::HL1ImportSettings", [2 x i8] }>
%"class.Assimp::BaseImporter" = type { ptr, double, double, %"class.std::__cxx11::basic_string", %"class.std::__exception_ptr::exception_ptr", ptr }
%"class.std::__exception_ptr::exception_ptr" = type { ptr }
%"struct.Assimp::MDL::HalfLife::HL1ImportSettings" = type { i8, i8, i8, i8, i8, i8, i8, i8, i8, i8 }
%struct.aiTexture = type <{ i32, i32, [9 x i8], [7 x i8], ptr, %struct.aiString, [4 x i8] }>
%struct.aiString = type { i32, [1024 x i8] }
%"struct.Assimp::MDL::Header" = type { i32, i32, [3 x float], [3 x float], float, [3 x float], i32, i32, i32, i32, i32, i32, i32, i32, float }
%struct.aiScene = type { i32, ptr, i32, ptr, i32, ptr, i32, ptr, i32, ptr, i32, ptr, i32, ptr, ptr, %struct.aiString, i32, ptr, ptr }

@.str.3 = private unnamed_addr constant [32 x i8] c"Unsupported texture file format\00", align 1

; Function Attrs: mustprogress nounwind uwtable
define linkonce_odr hidden void @_ZN8aiStringC2Ev(ptr noundef nonnull align 4 dereferenceable(1028) %this) unnamed_addr #0 comdat align 2 {
entry:
  %this.addr = alloca ptr, align 8
  store ptr %this, ptr %this.addr, align 8
  %this1 = load ptr, ptr %this.addr, align 8
  %length = getelementptr inbounds %struct.aiString, ptr %this1, i32 0, i32 0
  store i32 0, ptr %length, align 4
  %data = getelementptr inbounds %struct.aiString, ptr %this1, i32 0, i32 1
  %arrayidx = getelementptr inbounds [1024 x i8], ptr %data, i64 0, i64 0
  store i8 0, ptr %arrayidx, align 4
  ret void
}

; Function Attrs: mustprogress nounwind uwtable
define linkonce_odr hidden void @_ZN9aiTextureD2Ev(ptr noundef nonnull align 8 dereferenceable(1060) %this) unnamed_addr #0 comdat align 2 {
entry:
  %this.addr = alloca ptr, align 8
  store ptr %this, ptr %this.addr, align 8
  %this1 = load ptr, ptr %this.addr, align 8
  %pcData = getelementptr inbounds %struct.aiTexture, ptr %this1, i32 0, i32 4
  %0 = load ptr, ptr %pcData, align 8
  %isnull = icmp eq ptr %0, null
  br i1 %isnull, label %delete.end, label %delete.notnull

delete.notnull:                                   ; preds = %entry
  call void @_ZdaPv(ptr noundef %0) #18
  br label %delete.end

delete.end:                                       ; preds = %delete.notnull, %entry
  ret void
}

; Function Attrs: mustprogress nounwind uwtable
define linkonce_odr hidden void @_ZN9aiTextureC2Ev(ptr noundef nonnull align 8 dereferenceable(1060) %this) unnamed_addr #0 comdat align 2 {
entry:
  %this.addr = alloca ptr, align 8
  store ptr %this, ptr %this.addr, align 8
  %this1 = load ptr, ptr %this.addr, align 8
  %mWidth = getelementptr inbounds %struct.aiTexture, ptr %this1, i32 0, i32 0
  store i32 0, ptr %mWidth, align 8
  %mHeight = getelementptr inbounds %struct.aiTexture, ptr %this1, i32 0, i32 1
  store i32 0, ptr %mHeight, align 4
  %pcData = getelementptr inbounds %struct.aiTexture, ptr %this1, i32 0, i32 4
  store ptr null, ptr %pcData, align 8
  %mFilename = getelementptr inbounds %struct.aiTexture, ptr %this1, i32 0, i32 5
  call void @_ZN8aiStringC2Ev(ptr noundef nonnull align 4 dereferenceable(1028) %mFilename) #15
  %achFormatHint = getelementptr inbounds %struct.aiTexture, ptr %this1, i32 0, i32 2
  %arraydecay = getelementptr inbounds [9 x i8], ptr %achFormatHint, i64 0, i64 0
  call void @llvm.memset.p0.i64(ptr align 8 %arraydecay, i8 0, i64 9, i1 false)
  ret void
}

; Function Attrs: mustprogress uwtable
define hidden void @_ZN6Assimp11MDLImporter23CreateTexture_3DGS_MDL4EPKhjPj(ptr noundef nonnull align 8 dereferenceable(158) %this, ptr noundef %szData, i32 noundef %iType, ptr noundef %piSkip) #2 align 2 {
entry:
  %this.addr = alloca ptr, align 8
  %szData.addr = alloca ptr, align 8
  %iType.addr = alloca i32, align 4
  %piSkip.addr = alloca ptr, align 8
  %pcHeader = alloca ptr, align 8
  %bNoRead = alloca i8, align 1
  %pcNew = alloca ptr, align 8
  %pc = alloca ptr, align 8
  %i = alloca i32, align 4
  store ptr %this, ptr %this.addr, align 8
  store ptr %szData, ptr %szData.addr, align 8
  store i32 %iType, ptr %iType.addr, align 4
  store ptr %piSkip, ptr %piSkip.addr, align 8
  %this1 = load ptr, ptr %this.addr, align 8
  %mBuffer = getelementptr inbounds %"class.Assimp::MDLImporter", ptr %this1, i32 0, i32 4
  %0 = load ptr, ptr %mBuffer, align 8
  store ptr %0, ptr %pcHeader, align 8
  %1 = load i32, ptr %iType.addr, align 4
  %cmp = icmp eq i32 %1, 1
  br i1 %cmp, label %if.then, label %lor.lhs.false

lor.lhs.false:                                    ; preds = %entry
  %2 = load i32, ptr %iType.addr, align 4
  %cmp2 = icmp ugt i32 %2, 3
  br i1 %cmp2, label %if.then, label %if.end

if.then:                                          ; preds = %lor.lhs.false, %entry
  %call = call noundef ptr @_ZN6Assimp13DefaultLogger3getEv()
  call void @_ZN6Assimp6Logger5errorEPKc(ptr noundef nonnull align 8 dereferenceable(12) %call, ptr noundef @.str.3)
  br label %return

if.end:                                           ; preds = %lor.lhs.false
  %3 = load ptr, ptr %piSkip.addr, align 8
  %4 = load i32, ptr %3, align 4
  %cmp3 = icmp eq i32 %4, -1
  %frombool = zext i1 %cmp3 to i8
  store i8 %frombool, ptr %bNoRead, align 1
  %call4 = call noalias noundef nonnull ptr @_Znwm(i64 noundef 1064) #16
  call void @_ZN9aiTextureC2Ev(ptr noundef nonnull align 8 dereferenceable(1060) %call4) #15
  store ptr %call4, ptr %pcNew, align 8
  %5 = load ptr, ptr %pcHeader, align 8
  %skinwidth = getelementptr inbounds %"struct.Assimp::MDL::Header", ptr %5, i32 0, i32 7
  %6 = load i32, ptr %skinwidth, align 1
  %7 = load ptr, ptr %pcNew, align 8
  %mWidth = getelementptr inbounds %struct.aiTexture, ptr %7, i32 0, i32 0
  store i32 %6, ptr %mWidth, align 8
  %8 = load ptr, ptr %pcHeader, align 8
  %skinheight = getelementptr inbounds %"struct.Assimp::MDL::Header", ptr %8, i32 0, i32 8
  %9 = load i32, ptr %skinheight, align 1
  %10 = load ptr, ptr %pcNew, align 8
  %mHeight = getelementptr inbounds %struct.aiTexture, ptr %10, i32 0, i32 1
  store i32 %9, ptr %mHeight, align 4
  %11 = load i8, ptr %bNoRead, align 1
  %tobool = trunc i8 %11 to i1
  br i1 %tobool, label %if.then5, label %if.end6

if.then5:                                         ; preds = %if.end
  %12 = load ptr, ptr %pcNew, align 8
  %pcData = getelementptr inbounds %struct.aiTexture, ptr %12, i32 0, i32 4
  store ptr inttoptr (i64 -1 to ptr), ptr %pcData, align 8
  br label %if.end6

if.end6:                                          ; preds = %if.then5, %if.end
  %13 = load ptr, ptr %szData.addr, align 8
  %14 = load i32, ptr %iType.addr, align 4
  %15 = load ptr, ptr %piSkip.addr, align 8
  %16 = load ptr, ptr %pcNew, align 8
  call void @_ZN6Assimp11MDLImporter21ParseTextureColorDataEPKhjPjP9aiTexture(ptr noundef nonnull align 8 dereferenceable(158) %this1, ptr noundef %13, i32 noundef %14, ptr noundef %15, ptr noundef %16)
  %17 = load i8, ptr %bNoRead, align 1
  %tobool7 = trunc i8 %17 to i1
  br i1 %tobool7, label %if.else42, label %if.then8

if.then8:                                         ; preds = %if.end6
  %pScene = getelementptr inbounds %"class.Assimp::MDLImporter", ptr %this1, i32 0, i32 8
  %18 = load ptr, ptr %pScene, align 8
  %mNumTextures = getelementptr inbounds %struct.aiScene, ptr %18, i32 0, i32 8
  %19 = load i32, ptr %mNumTextures, align 8
  %tobool9 = icmp ne i32 %19, 0
  br i1 %tobool9, label %if.else, label %if.then10

if.then10:                                        ; preds = %if.then8
  %pScene11 = getelementptr inbounds %"class.Assimp::MDLImporter", ptr %this1, i32 0, i32 8
  %20 = load ptr, ptr %pScene11, align 8
  %mNumTextures12 = getelementptr inbounds %struct.aiScene, ptr %20, i32 0, i32 8
  store i32 1, ptr %mNumTextures12, align 8
  %call13 = call noalias noundef nonnull ptr @_Znam(i64 noundef 8) #16
  %pScene14 = getelementptr inbounds %"class.Assimp::MDLImporter", ptr %this1, i32 0, i32 8
  %21 = load ptr, ptr %pScene14, align 8
  %mTextures = getelementptr inbounds %struct.aiScene, ptr %21, i32 0, i32 9
  store ptr %call13, ptr %mTextures, align 8
  %22 = load ptr, ptr %pcNew, align 8
  %pScene15 = getelementptr inbounds %"class.Assimp::MDLImporter", ptr %this1, i32 0, i32 8
  %23 = load ptr, ptr %pScene15, align 8
  %mTextures16 = getelementptr inbounds %struct.aiScene, ptr %23, i32 0, i32 9
  %24 = load ptr, ptr %mTextures16, align 8
  %arrayidx = getelementptr inbounds ptr, ptr %24, i64 0
  store ptr %22, ptr %arrayidx, align 8
  br label %if.end41

if.else:                                          ; preds = %if.then8
  %pScene17 = getelementptr inbounds %"class.Assimp::MDLImporter", ptr %this1, i32 0, i32 8
  %25 = load ptr, ptr %pScene17, align 8
  %mTextures18 = getelementptr inbounds %struct.aiScene, ptr %25, i32 0, i32 9
  %26 = load ptr, ptr %mTextures18, align 8
  store ptr %26, ptr %pc, align 8
  %pScene19 = getelementptr inbounds %"class.Assimp::MDLImporter", ptr %this1, i32 0, i32 8
  %27 = load ptr, ptr %pScene19, align 8
  %mNumTextures20 = getelementptr inbounds %struct.aiScene, ptr %27, i32 0, i32 8
  %28 = load i32, ptr %mNumTextures20, align 8
  %add = add i32 %28, 1
  %conv = zext i32 %add to i64
  %29 = call { i64, i1 } @llvm.umul.with.overflow.i64(i64 %conv, i64 8)
  %30 = extractvalue { i64, i1 } %29, 1
  %31 = extractvalue { i64, i1 } %29, 0
  %32 = select i1 %30, i64 -1, i64 %31
  %call21 = call noalias noundef nonnull ptr @_Znam(i64 noundef %32) #16
  %pScene22 = getelementptr inbounds %"class.Assimp::MDLImporter", ptr %this1, i32 0, i32 8
  %33 = load ptr, ptr %pScene22, align 8
  %mTextures23 = getelementptr inbounds %struct.aiScene, ptr %33, i32 0, i32 9
  store ptr %call21, ptr %mTextures23, align 8
  store i32 0, ptr %i, align 4
  br label %for.cond

for.cond:                                         ; preds = %for.inc, %if.else
  %34 = load i32, ptr %i, align 4
  %pScene24 = getelementptr inbounds %"class.Assimp::MDLImporter", ptr %this1, i32 0, i32 8
  %35 = load ptr, ptr %pScene24, align 8
  %mNumTextures25 = getelementptr inbounds %struct.aiScene, ptr %35, i32 0, i32 8
  %36 = load i32, ptr %mNumTextures25, align 8
  %cmp26 = icmp ult i32 %34, %36
  br i1 %cmp26, label %for.body, label %for.end

for.body:                                         ; preds = %for.cond
  %37 = load ptr, ptr %pc, align 8
  %38 = load i32, ptr %i, align 4
  %idxprom = zext i32 %38 to i64
  %arrayidx27 = getelementptr inbounds ptr, ptr %37, i64 %idxprom
  %39 = load ptr, ptr %arrayidx27, align 8
  %pScene28 = getelementptr inbounds %"class.Assimp::MDLImporter", ptr %this1, i32 0, i32 8
  %40 = load ptr, ptr %pScene28, align 8
  %mTextures29 = getelementptr inbounds %struct.aiScene, ptr %40, i32 0, i32 9
  %41 = load ptr, ptr %mTextures29, align 8
  %42 = load i32, ptr %i, align 4
  %idxprom30 = zext i32 %42 to i64
  %arrayidx31 = getelementptr inbounds ptr, ptr %41, i64 %idxprom30
  store ptr %39, ptr %arrayidx31, align 8
  br label %for.inc

for.inc:                                          ; preds = %for.body
  %43 = load i32, ptr %i, align 4
  %inc = add i32 %43, 1
  store i32 %inc, ptr %i, align 4
  br label %for.cond, !llvm.loop !8

for.end:                                          ; preds = %for.cond
  %44 = load ptr, ptr %pcNew, align 8
  %pScene32 = getelementptr inbounds %"class.Assimp::MDLImporter", ptr %this1, i32 0, i32 8
  %45 = load ptr, ptr %pScene32, align 8
  %mTextures33 = getelementptr inbounds %struct.aiScene, ptr %45, i32 0, i32 9
  %46 = load ptr, ptr %mTextures33, align 8
  %pScene34 = getelementptr inbounds %"class.Assimp::MDLImporter", ptr %this1, i32 0, i32 8
  %47 = load ptr, ptr %pScene34, align 8
  %mNumTextures35 = getelementptr inbounds %struct.aiScene, ptr %47, i32 0, i32 8
  %48 = load i32, ptr %mNumTextures35, align 8
  %idxprom36 = zext i32 %48 to i64
  %arrayidx37 = getelementptr inbounds ptr, ptr %46, i64 %idxprom36
  store ptr %44, ptr %arrayidx37, align 8
  %pScene38 = getelementptr inbounds %"class.Assimp::MDLImporter", ptr %this1, i32 0, i32 8
  %49 = load ptr, ptr %pScene38, align 8
  %mNumTextures39 = getelementptr inbounds %struct.aiScene, ptr %49, i32 0, i32 8
  %50 = load i32, ptr %mNumTextures39, align 8
  %inc40 = add i32 %50, 1
  store i32 %inc40, ptr %mNumTextures39, align 8
  %51 = load ptr, ptr %pc, align 8
  %isnull = icmp eq ptr %51, null
  br i1 %isnull, label %delete.end, label %delete.notnull

delete.notnull:                                   ; preds = %for.end
  call void @_ZdaPv(ptr noundef %51) #18
  br label %delete.end

delete.end:                                       ; preds = %delete.notnull, %for.end
  br label %if.end41

if.end41:                                         ; preds = %delete.end, %if.then10
  br label %if.end47

if.else42:                                        ; preds = %if.end6
  %52 = load ptr, ptr %pcNew, align 8
  %pcData43 = getelementptr inbounds %struct.aiTexture, ptr %52, i32 0, i32 4
  store ptr null, ptr %pcData43, align 8
  %53 = load ptr, ptr %pcNew, align 8
  %isnull44 = icmp eq ptr %53, null
  br i1 %isnull44, label %delete.end46, label %delete.notnull45

delete.notnull45:                                 ; preds = %if.else42
  call void @_ZN9aiTextureD2Ev(ptr noundef nonnull align 8 dereferenceable(1060) %53) #15
  call void @_ZdlPv(ptr noundef %53) #18
  br label %delete.end46

delete.end46:                                     ; preds = %delete.notnull45, %if.else42
  br label %if.end47

if.end47:                                         ; preds = %delete.end46, %if.end41
  br label %return

return:                                           ; preds = %if.end47, %if.then
  ret void
}