; Function Attrs: mustprogress uwtable
define hidden void @_ZN6Assimp11MDLImporter23CreateTexture_3DGS_MDL4EPKhjPj(ptr noundef nonnull align 8 dereferenceable(158) %this, ptr noundef %szData, i32 noundef %iType, ptr nocapture noundef %piSkip) local_unnamed_addr #0 align 2 {
entry:
  %cmp = icmp eq i32 %iType, 1
  %cmp2 = icmp ugt i32 %iType, 3
  %or.cond = or i1 %cmp, %cmp2
  br i1 %or.cond, label %if.then, label %if.end

if.then:                                          ; preds = %entry
  %call = tail call noundef ptr @_ZN6Assimp13DefaultLogger3getEv()
  tail call void @_ZN6Assimp6Logger5errorEPKc(ptr noundef nonnull align 8 dereferenceable(12) %call, ptr noundef nonnull @.str.3)
  br label %return

if.end:                                           ; preds = %entry
  %mBuffer = getelementptr inbounds i8, ptr %this, i64 112
  %0 = load ptr, ptr %mBuffer, align 8
  %1 = load i32, ptr %piSkip, align 4
  %cmp3 = icmp eq i32 %1, -1
  %call4 = tail call noalias noundef nonnull dereferenceable(1064) ptr @_Znwm(i64 noundef 1064) #17
  %pcData.i = getelementptr inbounds i8, ptr %call4, i64 24
  store ptr null, ptr %pcData.i, align 8
  %mFilename.i = getelementptr inbounds i8, ptr %call4, i64 32
  store i32 0, ptr %mFilename.i, align 4
  %data.i.i = getelementptr inbounds i8, ptr %call4, i64 36
  store i8 0, ptr %data.i.i, align 4
  %2 = getelementptr inbounds i8, ptr %call4, i64 8
  tail call void @llvm.memset.p0.i64(ptr noundef nonnull align 8 dereferenceable(17) %2, i8 0, i64 9, i1 false)
  %skinwidth = getelementptr inbounds i8, ptr %0, i64 52
  %3 = load i32, ptr %skinwidth, align 1
  store i32 %3, ptr %call4, align 8
  %skinheight = getelementptr inbounds i8, ptr %0, i64 56
  %4 = load i32, ptr %skinheight, align 1
  %mHeight = getelementptr inbounds i8, ptr %call4, i64 4
  store i32 %4, ptr %mHeight, align 4
  br i1 %cmp3, label %_ZN9aiTextureD2Ev.exit, label %if.then8.critedge

_ZN9aiTextureD2Ev.exit:                           ; preds = %if.end
  store ptr inttoptr (i64 -1 to ptr), ptr %pcData.i, align 8
  tail call void @_ZN6Assimp11MDLImporter21ParseTextureColorDataEPKhjPjP9aiTexture(ptr noundef nonnull align 8 dereferenceable(158) %this, ptr noundef %szData, i32 noundef %iType, ptr noundef nonnull %piSkip, ptr noundef nonnull %call4)
  tail call void @_ZdlPv(ptr noundef nonnull %call4) #18
  br label %return

if.then8.critedge:                                ; preds = %if.end
  tail call void @_ZN6Assimp11MDLImporter21ParseTextureColorDataEPKhjPjP9aiTexture(ptr noundef nonnull align 8 dereferenceable(158) %this, ptr noundef %szData, i32 noundef %iType, ptr noundef nonnull %piSkip, ptr noundef nonnull %call4)
  %pScene = getelementptr inbounds i8, ptr %this, i64 136
  %5 = load ptr, ptr %pScene, align 8
  %mNumTextures = getelementptr inbounds i8, ptr %5, i64 64
  %6 = load i32, ptr %mNumTextures, align 8
  %tobool9.not = icmp eq i32 %6, 0
  br i1 %tobool9.not, label %if.then10, label %if.else

if.then10:                                        ; preds = %if.then8.critedge
  store i32 1, ptr %mNumTextures, align 8
  %call13 = tail call noalias noundef nonnull dereferenceable(8) ptr @_Znam(i64 noundef 8) #17
  %7 = load ptr, ptr %pScene, align 8
  %mTextures = getelementptr inbounds i8, ptr %7, i64 72
  store ptr %call13, ptr %mTextures, align 8
  %8 = load ptr, ptr %pScene, align 8
  %mTextures16 = getelementptr inbounds i8, ptr %8, i64 72
  %9 = load ptr, ptr %mTextures16, align 8
  store ptr %call4, ptr %9, align 8
  br label %return

if.else:                                          ; preds = %if.then8.critedge
  %mTextures18 = getelementptr inbounds i8, ptr %5, i64 72
  %10 = load ptr, ptr %mTextures18, align 8
  %add = add i32 %6, 1
  %conv = zext i32 %add to i64
  %11 = shl nuw nsw i64 %conv, 3
  %call21 = tail call noalias noundef nonnull ptr @_Znam(i64 noundef %11) #17
  store ptr %call21, ptr %mTextures18, align 8
  %12 = load ptr, ptr %pScene, align 8
  %mNumTextures2521 = getelementptr inbounds i8, ptr %12, i64 64
  %13 = load i32, ptr %mNumTextures2521, align 8
  %cmp2622.not = icmp eq i32 %13, 0
  br i1 %cmp2622.not, label %for.end, label %for.body

for.body:                                         ; preds = %if.else, %for.body
  %indvars.iv = phi i64 [ %indvars.iv.next, %for.body ], [ 0, %if.else ]
  %14 = phi ptr [ %17, %for.body ], [ %12, %if.else ]
  %arrayidx27 = getelementptr inbounds ptr, ptr %10, i64 %indvars.iv
  %15 = load ptr, ptr %arrayidx27, align 8
  %mTextures29 = getelementptr inbounds i8, ptr %14, i64 72
  %16 = load ptr, ptr %mTextures29, align 8
  %arrayidx31 = getelementptr inbounds ptr, ptr %16, i64 %indvars.iv
  store ptr %15, ptr %arrayidx31, align 8
  %indvars.iv.next = add nuw nsw i64 %indvars.iv, 1
  %17 = load ptr, ptr %pScene, align 8
  %mNumTextures25 = getelementptr inbounds i8, ptr %17, i64 64
  %18 = load i32, ptr %mNumTextures25, align 8
  %19 = zext i32 %18 to i64
  %cmp26 = icmp ult i64 %indvars.iv.next, %19
  br i1 %cmp26, label %for.body, label %for.end.loopexit, !llvm.loop !8

for.end.loopexit:                                 ; preds = %for.body
  %20 = zext i32 %18 to i64
  br label %for.end

for.end:                                          ; preds = %if.else, %for.end.loopexit
  %.lcssa20 = phi ptr [ %17, %for.end.loopexit ], [ %12, %if.else ]
  %.lcssa = phi i64 [ %20, %for.end.loopexit ], [ 0, %if.else ]
  %mTextures33 = getelementptr inbounds i8, ptr %.lcssa20, i64 72
  %21 = load ptr, ptr %mTextures33, align 8
  %arrayidx37 = getelementptr inbounds ptr, ptr %21, i64 %.lcssa
  store ptr %call4, ptr %arrayidx37, align 8
  %22 = load ptr, ptr %pScene, align 8
  %mNumTextures39 = getelementptr inbounds i8, ptr %22, i64 64
  %23 = load i32, ptr %mNumTextures39, align 8
  %inc40 = add i32 %23, 1
  store i32 %inc40, ptr %mNumTextures39, align 8
  %isnull = icmp eq ptr %10, null
  br i1 %isnull, label %return, label %delete.notnull

delete.notnull:                                   ; preds = %for.end
  tail call void @_ZdaPv(ptr noundef nonnull %10) #18
  br label %return

return:                                           ; preds = %for.end, %delete.notnull, %if.then10, %_ZN9aiTextureD2Ev.exit, %if.then
  ret void
}